target datalayout = "e-m:e-p270:32:32-p271:32:32-p272:64:64-i64:64-i128:128-f80:128-n8:16:32:64-S128"
target triple = "x86_64-pc-linux-gnu"

%struct.ImRect = type { %struct.ImVec2, %struct.ImVec2 }
%struct.ImVec2 = type { float, float }
%struct.ImGuiTextBuffer = type { %struct.ImVector.28 }
%struct.ImVector.28 = type { i32, i32, ptr }
%struct.ImGuiTableInstanceData = type { i32, float, float, float, i32, i32 }
%struct.ImGuiTableColumn = type <{ i32, float, float, float, float, float, float, float, float, %struct.ImRect, i32, float, float, float, float, float, float, float, i16, i16, i16, i16, i16, i16, i16, i16, i16, i8, i8, i8, i8, i8, i8, i8, i8, i8, i8, i8, i8, i8, i8 }>
%struct.ImGuiTable = type <{ i32, i32, ptr, ptr, %struct.ImSpan, %struct.ImSpan.41, %struct.ImSpan.42, ptr, ptr, ptr, i32, i32, i32, i32, i32, i32, i16, i16, float, float, float, float, float, float, i32, i32, [2 x i32], i32, i32, float, float, float, float, float, float, float, float, float, float, float, float, float, float, float, float, float, %struct.ImRect, %struct.ImRect, %struct.ImRect, %struct.ImRect, %struct.ImRect, %struct.ImRect, %struct.ImRect, %struct.ImRect, %struct.ImRect, ptr, ptr, %struct.ImGuiTextBuffer, ptr, %struct.ImGuiTableInstanceData, %struct.ImVector.43, %struct.ImGuiTableColumnSortSpecs, [4 x i8], %struct.ImVector.44, %struct.ImGuiTableSortSpecs, i16, i16, i16, i16, i16, i16, i16, i16, i16, i16, i16, i16, i16, i16, i16, i16, i16, i16, i16, i16, i16, i16, i16, i16, i16, i16, i16, i8, i8, i8, i8, i8, i8, i8, i8, i8, i8, i8, i8, i8, i8, i8, i8, i8, i8, i8, i8, [6 x i8] }>
%struct.ImSpan = type { ptr, ptr }
%struct.ImSpan.41 = type { ptr, ptr }
%struct.ImSpan.42 = type { ptr, ptr }
%struct.ImVector.43 = type { i32, i32, ptr }
%struct.ImGuiTableColumnSortSpecs = type <{ i32, i16, i16, i8, [3 x i8] }>
%struct.ImVector.44 = type { i32, i32, ptr }
%struct.ImGuiTableSortSpecs = type <{ ptr, i32, i8, [3 x i8] }>

; Function Attrs: inlinehint mustprogress nounwind uwtable
define internal noundef float @_ZL5ImMaxIfET_S0_S0_(float noundef %0, float noundef %1) #4 {
  %3 = alloca float, align 4
  %4 = alloca float, align 4
  store float %0, ptr %3, align 4, !tbaa !17
  store float %1, ptr %4, align 4, !tbaa !17
  %5 = load float, ptr %3, align 4, !tbaa !17
  %6 = load float, ptr %4, align 4, !tbaa !17
  %7 = fcmp oge float %5, %6
  br i1 %7, label %8, label %10

8:                                                ; preds = %2
  %9 = load float, ptr %3, align 4, !tbaa !17
  br label %12

10:                                               ; preds = %2
  %11 = load float, ptr %4, align 4, !tbaa !17
  br label %12

12:                                               ; preds = %10, %8
  %13 = phi float [ %9, %8 ], [ %11, %10 ]
  ret float %13
}

; Function Attrs: mustprogress uwtable
define dso_local noundef float @_ZN5ImGui23TableGetColumnWidthAutoEP10ImGuiTableP16ImGuiTableColumn(ptr noundef %0, ptr noundef %1) #0 {
  %3 = alloca ptr, align 8
  %4 = alloca ptr, align 8
  %5 = alloca float, align 4
  %6 = alloca float, align 4
  %7 = alloca float, align 4
  store ptr %0, ptr %3, align 8, !tbaa !166
  store ptr %1, ptr %4, align 8, !tbaa !259
  call void @llvm.lifetime.start.p0(i64 4, ptr %5) #8
  %8 = load ptr, ptr %4, align 8, !tbaa !259
  %9 = getelementptr inbounds nuw %struct.ImGuiTableColumn, ptr %8, i32 0, i32 14
  %10 = load float, ptr %9, align 4, !tbaa !441
  %11 = load ptr, ptr %4, align 8, !tbaa !259
  %12 = getelementptr inbounds nuw %struct.ImGuiTableColumn, ptr %11, i32 0, i32 15
  %13 = load float, ptr %12, align 4, !tbaa !442
  %14 = call noundef float @_ZL5ImMaxIfET_S0_S0_(float noundef %10, float noundef %13)
  %15 = load ptr, ptr %4, align 8, !tbaa !259
  %16 = getelementptr inbounds nuw %struct.ImGuiTableColumn, ptr %15, i32 0, i32 11
  %17 = load float, ptr %16, align 4, !tbaa !431
  %18 = fsub float %14, %17
  store float %18, ptr %5, align 4, !tbaa !17
  call void @llvm.lifetime.start.p0(i64 4, ptr %6) #8
  %19 = load ptr, ptr %4, align 8, !tbaa !259
  %20 = getelementptr inbounds nuw %struct.ImGuiTableColumn, ptr %19, i32 0, i32 17
  %21 = load float, ptr %20, align 4, !tbaa !444
  %22 = load ptr, ptr %4, align 8, !tbaa !259
  %23 = getelementptr inbounds nuw %struct.ImGuiTableColumn, ptr %22, i32 0, i32 11
  %24 = load float, ptr %23, align 4, !tbaa !431
  %25 = fsub float %21, %24
  store float %25, ptr %6, align 4, !tbaa !17
  call void @llvm.lifetime.start.p0(i64 4, ptr %7) #8
  %26 = load float, ptr %5, align 4, !tbaa !17
  store float %26, ptr %7, align 4, !tbaa !17
  %27 = load ptr, ptr %4, align 8, !tbaa !259
  %28 = getelementptr inbounds nuw %struct.ImGuiTableColumn, ptr %27, i32 0, i32 0
  %29 = load i32, ptr %28, align 4, !tbaa !399
  %30 = and i32 %29, 8192
  %31 = icmp ne i32 %30, 0
  br i1 %31, label %36, label %32

32:                                               ; preds = %2
  %33 = load float, ptr %7, align 4, !tbaa !17
  %34 = load float, ptr %6, align 4, !tbaa !17
  %35 = call noundef float @_ZL5ImMaxIfET_S0_S0_(float noundef %33, float noundef %34)
  store float %35, ptr %7, align 4, !tbaa !17
  br label %36

36:                                               ; preds = %32, %2
  %37 = load ptr, ptr %4, align 8, !tbaa !259
  %38 = getelementptr inbounds nuw %struct.ImGuiTableColumn, ptr %37, i32 0, i32 0
  %39 = load i32, ptr %38, align 4, !tbaa !399
  %40 = and i32 %39, 16
  %41 = icmp ne i32 %40, 0
  br i1 %41, label %42, label %64

42:                                               ; preds = %36
  %43 = load ptr, ptr %4, align 8, !tbaa !259
  %44 = getelementptr inbounds nuw %struct.ImGuiTableColumn, ptr %43, i32 0, i32 8
  %45 = load float, ptr %44, align 4, !tbaa !406
  %46 = fcmp ogt float %45, 0.000000e+00
  br i1 %46, label %47, label %64

47:                                               ; preds = %42
  %48 = load ptr, ptr %3, align 8, !tbaa !166
  %49 = getelementptr inbounds nuw %struct.ImGuiTable, ptr %48, i32 0, i32 1
  %50 = load i32, ptr %49, align 4, !tbaa !195
  %51 = and i32 %50, 1
  %52 = icmp ne i32 %51, 0
  br i1 %52, label %53, label %59

53:                                               ; preds = %47
  %54 = load ptr, ptr %4, align 8, !tbaa !259
  %55 = getelementptr inbounds nuw %struct.ImGuiTableColumn, ptr %54, i32 0, i32 0
  %56 = load i32, ptr %55, align 4, !tbaa !399
  %57 = and i32 %56, 32
  %58 = icmp ne i32 %57, 0
  br i1 %58, label %59, label %63

59:                                               ; preds = %53, %47
  %60 = load ptr, ptr %4, align 8, !tbaa !259
  %61 = getelementptr inbounds nuw %struct.ImGuiTableColumn, ptr %60, i32 0, i32 8
  %62 = load float, ptr %61, align 4, !tbaa !406
  store float %62, ptr %7, align 4, !tbaa !17
  br label %63

63:                                               ; preds = %59, %53
  br label %64

64:                                               ; preds = %63, %42, %36
  %65 = load float, ptr %7, align 4, !tbaa !17
  %66 = load ptr, ptr %3, align 8, !tbaa !166
  %67 = getelementptr inbounds nuw %struct.ImGuiTable, ptr %66, i32 0, i32 32
  %68 = load float, ptr %67, align 8, !tbaa !396
  %69 = call noundef float @_ZL5ImMaxIfET_S0_S0_(float noundef %65, float noundef %68)
  call void @llvm.lifetime.end.p0(i64 4, ptr %7) #8
  call void @llvm.lifetime.end.p0(i64 4, ptr %6) #8
  call void @llvm.lifetime.end.p0(i64 4, ptr %5) #8
  ret float %69
}