; Function Attrs: mustprogress nofree norecurse nosync nounwind willreturn memory(argmem: read) uwtable
define dso_local noundef float @_ZN5ImGui23TableGetColumnWidthAutoEP10ImGuiTableP16ImGuiTableColumn(ptr noundef readonly captures(none) %0, ptr noundef readonly captures(none) %1) local_unnamed_addr #11 {
  %3 = getelementptr inbounds nuw i8, ptr %1, i64 68
  %4 = load float, ptr %3, align 4, !tbaa !367
  %5 = getelementptr inbounds nuw i8, ptr %1, i64 72
  %6 = load float, ptr %5, align 4, !tbaa !368
  %7 = fcmp oge float %4, %6
  %8 = select i1 %7, float %4, float %6
  %9 = getelementptr inbounds nuw i8, ptr %1, i64 56
  %10 = load float, ptr %9, align 4, !tbaa !369
  %11 = fsub float %8, %10
  %12 = load i32, ptr %1, align 4, !tbaa !352
  %13 = and i32 %12, 8192
  %.not = icmp eq i32 %13, 0
  br i1 %.not, label %14, label %20

14:                                               ; preds = %2
  %15 = getelementptr inbounds nuw i8, ptr %1, i64 80
  %16 = load float, ptr %15, align 4, !tbaa !370
  %17 = fsub float %16, %10
  %18 = fcmp oge float %11, %17
  %19 = select i1 %18, float %11, float %17
  br label %20

20:                                               ; preds = %14, %2
  %.0 = phi float [ %11, %2 ], [ %19, %14 ]
  %21 = and i32 %12, 16
  %.not16 = icmp eq i32 %21, 0
  br i1 %.not16, label %32, label %22

22:                                               ; preds = %20
  %23 = getelementptr inbounds nuw i8, ptr %1, i64 32
  %24 = load float, ptr %23, align 4, !tbaa !364
  %25 = fcmp ogt float %24, 0.000000e+00
  br i1 %25, label %26, label %32

26:                                               ; preds = %22
  %27 = getelementptr inbounds nuw i8, ptr %0, i64 4
  %28 = load i32, ptr %27, align 4, !tbaa !203
  %29 = and i32 %28, 1
  %.not17 = icmp ne i32 %29, 0
  %30 = and i32 %12, 32
  %.not18 = icmp eq i32 %30, 0
  %or.cond = and i1 %.not18, %.not17
  br i1 %or.cond, label %32, label %31

31:                                               ; preds = %26
  br label %32

32:                                               ; preds = %26, %31, %22, %20
  %.1 = phi float [ %24, %31 ], [ %.0, %22 ], [ %.0, %20 ], [ %.0, %26 ]
  %33 = getelementptr inbounds nuw i8, ptr %0, i64 184
  %34 = load float, ptr %33, align 8, !tbaa !348
  %35 = fcmp oge float %.1, %34
  %36 = select i1 %35, float %.1, float %34
  ret float %36
}